target datalayout = "e-m:e-p270:32:32-p271:32:32-p272:64:64-i64:64-i128:128-f80:128-n8:16:32:64-S128"
target triple = "x86_64-pc-linux-gnu"

%struct._value_string = type { i32, ptr }

@.str.70 = private unnamed_addr constant [8 x i8] c"\0A# %s.\0A\00", align 1
@.str.72 = private unnamed_addr constant [11 x i8] c"# One of: \00", align 1
@.str.73 = private unnamed_addr constant [3 x i8] c"%s\00", align 1
@.str.74 = private unnamed_addr constant [3 x i8] c", \00", align 1
@.str.76 = private unnamed_addr constant [8 x i8] c"%s: %s\0A\00", align 1
@.str.79 = private unnamed_addr constant [8 x i8] c"Unknown\00", align 1
@.str.140 = private unnamed_addr constant [2 x i8] c"\0A\00", align 1

; Function Attrs: null_pointer_is_valid sspstrong uwtable
define internal void @write_recent_enum(ptr noundef %0, ptr noundef %1, ptr noundef %2, ptr noundef %3, i32 noundef %4) #0 {
  %6 = alloca ptr, align 8
  %7 = alloca ptr, align 8
  %8 = alloca ptr, align 8
  %9 = alloca ptr, align 8
  %10 = alloca i32, align 4
  %11 = alloca ptr, align 8
  %12 = alloca ptr, align 8
  %13 = alloca ptr, align 8
  store ptr %0, ptr %6, align 8
  store ptr %1, ptr %7, align 8
  store ptr %2, ptr %8, align 8
  store ptr %3, ptr %9, align 8
  store i32 %4, ptr %10, align 4
  call void @llvm.lifetime.start.p0(i64 8, ptr %11) #13
  store ptr null, ptr %11, align 8
  call void @llvm.lifetime.start.p0(i64 8, ptr %12) #13
  call void @llvm.lifetime.start.p0(i64 8, ptr %13) #13
  %14 = load ptr, ptr %6, align 8
  %15 = load ptr, ptr %7, align 8
  %16 = call i32 (ptr, i32, ptr, ...) @__fprintf_chk(ptr noundef %14, i32 noundef 2, ptr noundef @.str.70, ptr noundef %15)
  %17 = load ptr, ptr %6, align 8
  %18 = call i32 (ptr, i32, ptr, ...) @__fprintf_chk(ptr noundef %17, i32 noundef 2, ptr noundef @.str.72)
  %19 = load ptr, ptr %9, align 8
  store ptr %19, ptr %12, align 8
  br label %20

20:                                               ; preds = %47, %5
  %21 = load ptr, ptr %12, align 8
  %22 = getelementptr inbounds nuw %struct._value_string, ptr %21, i32 0, i32 1
  %23 = load ptr, ptr %22, align 8
  %24 = icmp ne ptr %23, null
  br i1 %24, label %25, label %48

25:                                               ; preds = %20
  %26 = load ptr, ptr %11, align 8
  %27 = icmp eq ptr %26, null
  br i1 %27, label %28, label %32

28:                                               ; preds = %25
  %29 = load ptr, ptr %12, align 8
  %30 = getelementptr inbounds nuw %struct._value_string, ptr %29, i32 0, i32 1
  %31 = load ptr, ptr %30, align 8
  store ptr %31, ptr %11, align 8
  br label %32

32:                                               ; preds = %28, %25
  %33 = load ptr, ptr %6, align 8
  %34 = load ptr, ptr %12, align 8
  %35 = getelementptr inbounds nuw %struct._value_string, ptr %34, i32 0, i32 1
  %36 = load ptr, ptr %35, align 8
  %37 = call i32 (ptr, i32, ptr, ...) @__fprintf_chk(ptr noundef %33, i32 noundef 2, ptr noundef @.str.73, ptr noundef %36)
  %38 = load ptr, ptr %12, align 8
  %39 = getelementptr %struct._value_string, ptr %38, i32 1
  store ptr %39, ptr %12, align 8
  %40 = load ptr, ptr %12, align 8
  %41 = getelementptr inbounds nuw %struct._value_string, ptr %40, i32 0, i32 1
  %42 = load ptr, ptr %41, align 8
  %43 = icmp ne ptr %42, null
  br i1 %43, label %44, label %47

44:                                               ; preds = %32
  %45 = load ptr, ptr %6, align 8
  %46 = call i32 (ptr, i32, ptr, ...) @__fprintf_chk(ptr noundef %45, i32 noundef 2, ptr noundef @.str.74)
  br label %47

47:                                               ; preds = %44, %32
  br label %20, !llvm.loop !10

48:                                               ; preds = %20
  %49 = load ptr, ptr %6, align 8
  %50 = call i32 (ptr, i32, ptr, ...) @__fprintf_chk(ptr noundef %49, i32 noundef 2, ptr noundef @.str.140)
  %51 = load i32, ptr %10, align 4
  %52 = load ptr, ptr %9, align 8
  %53 = call ptr @try_val_to_str(i32 noundef %51, ptr noundef %52)
  store ptr %53, ptr %13, align 8
  %54 = load ptr, ptr %13, align 8
  %55 = icmp ne ptr %54, null
  br i1 %55, label %56, label %61

56:                                               ; preds = %48
  %57 = load ptr, ptr %6, align 8
  %58 = load ptr, ptr %8, align 8
  %59 = load ptr, ptr %13, align 8
  %60 = call i32 (ptr, i32, ptr, ...) @__fprintf_chk(ptr noundef %57, i32 noundef 2, ptr noundef @.str.76, ptr noundef %58, ptr noundef %59)
  br label %72

61:                                               ; preds = %48
  %62 = load ptr, ptr %6, align 8
  %63 = load ptr, ptr %8, align 8
  %64 = load ptr, ptr %11, align 8
  %65 = icmp ne ptr %64, null
  br i1 %65, label %66, label %68

66:                                               ; preds = %61
  %67 = load ptr, ptr %11, align 8
  br label %69

68:                                               ; preds = %61
  br label %69

69:                                               ; preds = %68, %66
  %70 = phi ptr [ %67, %66 ], [ @.str.79, %68 ]
  %71 = call i32 (ptr, i32, ptr, ...) @__fprintf_chk(ptr noundef %62, i32 noundef 2, ptr noundef @.str.76, ptr noundef %63, ptr noundef %70)
  br label %72

72:                                               ; preds = %69, %56
  call void @llvm.lifetime.end.p0(i64 8, ptr %13) #13
  call void @llvm.lifetime.end.p0(i64 8, ptr %12) #13
  call void @llvm.lifetime.end.p0(i64 8, ptr %11) #13
  ret void
}