; Function Attrs: null_pointer_is_valid sspstrong uwtable
define internal fastcc void @write_recent_enum(ptr noundef nonnull %0, ptr noundef %1, ptr noundef %2, ptr noundef %3, i32 noundef %4) unnamed_addr #0 {
  %6 = tail call i32 (ptr, i32, ptr, ...) @__fprintf_chk(ptr noundef nonnull %0, i32 noundef 2, ptr noundef nonnull @.str.70, ptr noundef %1)
  %7 = tail call i32 (ptr, i32, ptr, ...) @__fprintf_chk(ptr noundef nonnull %0, i32 noundef 2, ptr noundef nonnull @.str.72)
  %8 = getelementptr inbounds nuw i8, ptr %3, i64 8
  %9 = load ptr, ptr %8, align 8
  %.not28 = icmp eq ptr %9, null
  br i1 %.not28, label %._crit_edge, label %.lr.ph

.lr.ph:                                           ; preds = %5, %15
  %10 = phi ptr [ %.pre, %15 ], [ %9, %5 ]
  %.030 = phi ptr [ %spec.select, %15 ], [ null, %5 ]
  %.02229 = phi ptr [ %16, %15 ], [ %3, %5 ]
  %11 = icmp eq ptr %.030, null
  %spec.select = select i1 %11, ptr %10, ptr %.030
  %12 = tail call i32 (ptr, i32, ptr, ...) @__fprintf_chk(ptr noundef nonnull %0, i32 noundef 2, ptr noundef nonnull @.str.73, ptr noundef nonnull %10)
  %13 = getelementptr i8, ptr %.02229, i64 24
  %14 = load ptr, ptr %13, align 8
  %.not27 = icmp eq ptr %14, null
  br i1 %.not27, label %._crit_edge, label %15

15:                                               ; preds = %.lr.ph
  %16 = getelementptr i8, ptr %.02229, i64 16
  %17 = tail call i32 (ptr, i32, ptr, ...) @__fprintf_chk(ptr noundef nonnull %0, i32 noundef 2, ptr noundef nonnull @.str.74)
  %.pre = load ptr, ptr %13, align 8
  %.not = icmp eq ptr %.pre, null
  br i1 %.not, label %._crit_edge, label %.lr.ph, !llvm.loop !11

._crit_edge:                                      ; preds = %.lr.ph, %15, %5
  %.0.lcssa = phi ptr [ null, %5 ], [ %spec.select, %15 ], [ %spec.select, %.lr.ph ]
  %18 = tail call i32 (ptr, i32, ptr, ...) @__fprintf_chk(ptr noundef nonnull %0, i32 noundef 2, ptr noundef nonnull @.str.140)
  %19 = tail call ptr @try_val_to_str(i32 noundef %4, ptr noundef %3)
  %.not25 = icmp eq ptr %19, null
  %.not26 = icmp eq ptr %.0.lcssa, null
  %20 = select i1 %.not26, ptr @.str.79, ptr %.0.lcssa
  %.sink = select i1 %.not25, ptr %20, ptr %19
  %21 = tail call i32 (ptr, i32, ptr, ...) @__fprintf_chk(ptr noundef nonnull %0, i32 noundef 2, ptr noundef nonnull @.str.76, ptr noundef %2, ptr noundef nonnull %.sink)
  ret void
}